target datalayout = "e-m:e-p270:32:32-p271:32:32-p272:64:64-i64:64-i128:128-f80:128-n8:16:32:64-S128"
target triple = "x86_64-unknown-linux-gnu"

%struct.hdr_histogram = type { i64, i64, i32, i32, i32, i32, i64, i32, i32, i64, i64, i32, double, i32, i64, ptr }
%struct.hdr_iter = type { ptr, i32, i64, i64, i64, i64, i64, i64, i64, i64, i64, %union.anon, ptr }
%union.anon = type { %struct.hdr_iter_linear }
%struct.hdr_iter_linear = type { i64, i64, i64, i64 }

; Function Attrs: nounwind uwtable
define internal i32 @count_leading_zeros_64(i64 noundef %value) #0 {
entry:
  %value.addr = alloca i64, align 8
  store i64 %value, ptr %value.addr, align 8
  %0 = load i64, ptr %value.addr, align 8
  %1 = call i64 @llvm.ctlz.i64(i64 %0, i1 true)
  %cast = trunc i64 %1 to i32
  ret i32 %cast
}

; Function Attrs: nounwind uwtable
define internal i64 @value_from_index(i32 noundef %bucket_index, i32 noundef %sub_bucket_index, i32 noundef %unit_magnitude) #0 {
entry:
  %bucket_index.addr = alloca i32, align 4
  %sub_bucket_index.addr = alloca i32, align 4
  %unit_magnitude.addr = alloca i32, align 4
  store i32 %bucket_index, ptr %bucket_index.addr, align 4
  store i32 %sub_bucket_index, ptr %sub_bucket_index.addr, align 4
  store i32 %unit_magnitude, ptr %unit_magnitude.addr, align 4
  %0 = load i32, ptr %sub_bucket_index.addr, align 4
  %conv = sext i32 %0 to i64
  %1 = load i32, ptr %bucket_index.addr, align 4
  %2 = load i32, ptr %unit_magnitude.addr, align 4
  %add = add nsw i32 %1, %2
  %sh_prom = zext i32 %add to i64
  %shl = shl i64 %conv, %sh_prom
  ret i64 %shl
}

; Function Attrs: nounwind uwtable
define internal i64 @counts_get_direct(ptr noundef %h, i32 noundef %index) #0 {
entry:
  %h.addr = alloca ptr, align 8
  %index.addr = alloca i32, align 4
  store ptr %h, ptr %h.addr, align 8
  store i32 %index, ptr %index.addr, align 4
  %0 = load ptr, ptr %h.addr, align 8
  %counts = getelementptr inbounds %struct.hdr_histogram, ptr %0, i32 0, i32 15
  %1 = load ptr, ptr %counts, align 8
  %2 = load i32, ptr %index.addr, align 4
  %idxprom = sext i32 %2 to i64
  %arrayidx = getelementptr inbounds i64, ptr %1, i64 %idxprom
  %3 = load i64, ptr %arrayidx, align 8
  ret i64 %3
}

; Function Attrs: nounwind uwtable
define internal i32 @normalize_index(ptr noundef %h, i32 noundef %index) #0 {
entry:
  %retval = alloca i32, align 4
  %h.addr = alloca ptr, align 8
  %index.addr = alloca i32, align 4
  %normalized_index = alloca i32, align 4
  %adjustment = alloca i32, align 4
  store ptr %h, ptr %h.addr, align 8
  store i32 %index, ptr %index.addr, align 4
  store i32 0, ptr %adjustment, align 4
  %0 = load ptr, ptr %h.addr, align 8
  %normalizing_index_offset = getelementptr inbounds %struct.hdr_histogram, ptr %0, i32 0, i32 11
  %1 = load i32, ptr %normalizing_index_offset, align 8
  %cmp = icmp eq i32 %1, 0
  br i1 %cmp, label %if.then, label %if.end

if.then:                                          ; preds = %entry
  %2 = load i32, ptr %index.addr, align 4
  store i32 %2, ptr %retval, align 4
  br label %return

if.end:                                           ; preds = %entry
  %3 = load i32, ptr %index.addr, align 4
  %4 = load ptr, ptr %h.addr, align 8
  %normalizing_index_offset1 = getelementptr inbounds %struct.hdr_histogram, ptr %4, i32 0, i32 11
  %5 = load i32, ptr %normalizing_index_offset1, align 8
  %sub = sub nsw i32 %3, %5
  store i32 %sub, ptr %normalized_index, align 4
  %6 = load i32, ptr %normalized_index, align 4
  %cmp2 = icmp slt i32 %6, 0
  br i1 %cmp2, label %if.then3, label %if.else

if.then3:                                         ; preds = %if.end
  %7 = load ptr, ptr %h.addr, align 8
  %counts_len = getelementptr inbounds %struct.hdr_histogram, ptr %7, i32 0, i32 13
  %8 = load i32, ptr %counts_len, align 8
  store i32 %8, ptr %adjustment, align 4
  br label %if.end10

if.else:                                          ; preds = %if.end
  %9 = load i32, ptr %normalized_index, align 4
  %10 = load ptr, ptr %h.addr, align 8
  %counts_len4 = getelementptr inbounds %struct.hdr_histogram, ptr %10, i32 0, i32 13
  %11 = load i32, ptr %counts_len4, align 8
  %cmp5 = icmp sge i32 %9, %11
  br i1 %cmp5, label %if.then6, label %if.end9

if.then6:                                         ; preds = %if.else
  %12 = load ptr, ptr %h.addr, align 8
  %counts_len7 = getelementptr inbounds %struct.hdr_histogram, ptr %12, i32 0, i32 13
  %13 = load i32, ptr %counts_len7, align 8
  %sub8 = sub nsw i32 0, %13
  store i32 %sub8, ptr %adjustment, align 4
  br label %if.end9

if.end9:                                          ; preds = %if.then6, %if.else
  br label %if.end10

if.end10:                                         ; preds = %if.end9, %if.then3
  %14 = load i32, ptr %normalized_index, align 4
  %15 = load i32, ptr %adjustment, align 4
  %add = add nsw i32 %14, %15
  store i32 %add, ptr %retval, align 4
  br label %return

return:                                           ; preds = %if.end10, %if.then
  %16 = load i32, ptr %retval, align 4
  ret i32 %16
}

; Function Attrs: nounwind uwtable
define internal i64 @size_of_equivalent_value_range_given_bucket_indices(ptr noundef %h, i32 noundef %bucket_index, i32 noundef %sub_bucket_index) #0 {
entry:
  %h.addr = alloca ptr, align 8
  %bucket_index.addr = alloca i32, align 4
  %sub_bucket_index.addr = alloca i32, align 4
  %adjusted_bucket = alloca i32, align 4
  store ptr %h, ptr %h.addr, align 8
  store i32 %bucket_index, ptr %bucket_index.addr, align 4
  store i32 %sub_bucket_index, ptr %sub_bucket_index.addr, align 4
  %0 = load i32, ptr %sub_bucket_index.addr, align 4
  %1 = load ptr, ptr %h.addr, align 8
  %sub_bucket_count = getelementptr inbounds %struct.hdr_histogram, ptr %1, i32 0, i32 7
  %2 = load i32, ptr %sub_bucket_count, align 8
  %cmp = icmp sge i32 %0, %2
  br i1 %cmp, label %cond.true, label %cond.false

cond.true:                                        ; preds = %entry
  %3 = load i32, ptr %bucket_index.addr, align 4
  %add = add nsw i32 %3, 1
  br label %cond.end

cond.false:                                       ; preds = %entry
  %4 = load i32, ptr %bucket_index.addr, align 4
  br label %cond.end

cond.end:                                         ; preds = %cond.false, %cond.true
  %cond = phi i32 [ %add, %cond.true ], [ %4, %cond.false ]
  store i32 %cond, ptr %adjusted_bucket, align 4
  %5 = load ptr, ptr %h.addr, align 8
  %unit_magnitude = getelementptr inbounds %struct.hdr_histogram, ptr %5, i32 0, i32 2
  %6 = load i32, ptr %unit_magnitude, align 8
  %7 = load i32, ptr %adjusted_bucket, align 4
  %add1 = add nsw i32 %6, %7
  %sh_prom = zext i32 %add1 to i64
  %shl = shl i64 1, %sh_prom
  ret i64 %shl
}

; Function Attrs: nounwind uwtable
define internal i64 @lowest_equivalent_value_given_bucket_indices(ptr noundef %h, i32 noundef %bucket_index, i32 noundef %sub_bucket_index) #0 {
entry:
  %h.addr = alloca ptr, align 8
  %bucket_index.addr = alloca i32, align 4
  %sub_bucket_index.addr = alloca i32, align 4
  store ptr %h, ptr %h.addr, align 8
  store i32 %bucket_index, ptr %bucket_index.addr, align 4
  store i32 %sub_bucket_index, ptr %sub_bucket_index.addr, align 4
  %0 = load i32, ptr %bucket_index.addr, align 4
  %1 = load i32, ptr %sub_bucket_index.addr, align 4
  %2 = load ptr, ptr %h.addr, align 8
  %unit_magnitude = getelementptr inbounds %struct.hdr_histogram, ptr %2, i32 0, i32 2
  %3 = load i32, ptr %unit_magnitude, align 8
  %call = call i64 @value_from_index(i32 noundef %0, i32 noundef %1, i32 noundef %3)
  ret i64 %call
}

; Function Attrs: nounwind uwtable
define internal i32 @get_sub_bucket_index(i64 noundef %value, i32 noundef %bucket_index, i32 noundef %unit_magnitude) #0 {
entry:
  %value.addr = alloca i64, align 8
  %bucket_index.addr = alloca i32, align 4
  %unit_magnitude.addr = alloca i32, align 4
  store i64 %value, ptr %value.addr, align 8
  store i32 %bucket_index, ptr %bucket_index.addr, align 4
  store i32 %unit_magnitude, ptr %unit_magnitude.addr, align 4
  %0 = load i64, ptr %value.addr, align 8
  %1 = load i32, ptr %bucket_index.addr, align 4
  %2 = load i32, ptr %unit_magnitude.addr, align 4
  %add = add nsw i32 %1, %2
  %sh_prom = zext i32 %add to i64
  %shr = ashr i64 %0, %sh_prom
  %conv = trunc i64 %shr to i32
  ret i32 %conv
}

; Function Attrs: nounwind uwtable
define internal i32 @get_bucket_index(ptr noundef %h, i64 noundef %value) #0 {
entry:
  %h.addr = alloca ptr, align 8
  %value.addr = alloca i64, align 8
  %pow2ceiling = alloca i32, align 4
  store ptr %h, ptr %h.addr, align 8
  store i64 %value, ptr %value.addr, align 8
  %0 = load i64, ptr %value.addr, align 8
  %1 = load ptr, ptr %h.addr, align 8
  %sub_bucket_mask = getelementptr inbounds %struct.hdr_histogram, ptr %1, i32 0, i32 6
  %2 = load i64, ptr %sub_bucket_mask, align 8
  %or = or i64 %0, %2
  %call = call i32 @count_leading_zeros_64(i64 noundef %or)
  %sub = sub nsw i32 64, %call
  store i32 %sub, ptr %pow2ceiling, align 4
  %3 = load i32, ptr %pow2ceiling, align 4
  %4 = load ptr, ptr %h.addr, align 8
  %unit_magnitude = getelementptr inbounds %struct.hdr_histogram, ptr %4, i32 0, i32 2
  %5 = load i32, ptr %unit_magnitude, align 8
  %sub1 = sub nsw i32 %3, %5
  %6 = load ptr, ptr %h.addr, align 8
  %sub_bucket_half_count_magnitude = getelementptr inbounds %struct.hdr_histogram, ptr %6, i32 0, i32 4
  %7 = load i32, ptr %sub_bucket_half_count_magnitude, align 8
  %add = add nsw i32 %7, 1
  %sub2 = sub nsw i32 %sub1, %add
  ret i32 %sub2
}

; Function Attrs: nounwind uwtable
define dso_local i64 @hdr_value_at_index(ptr noundef %h, i32 noundef %index) #0 {
entry:
  %h.addr = alloca ptr, align 8
  %index.addr = alloca i32, align 4
  %bucket_index = alloca i32, align 4
  %sub_bucket_index = alloca i32, align 4
  store ptr %h, ptr %h.addr, align 8
  store i32 %index, ptr %index.addr, align 4
  %0 = load i32, ptr %index.addr, align 4
  %1 = load ptr, ptr %h.addr, align 8
  %sub_bucket_half_count_magnitude = getelementptr inbounds %struct.hdr_histogram, ptr %1, i32 0, i32 4
  %2 = load i32, ptr %sub_bucket_half_count_magnitude, align 8
  %shr = ashr i32 %0, %2
  %sub = sub nsw i32 %shr, 1
  store i32 %sub, ptr %bucket_index, align 4
  %3 = load i32, ptr %index.addr, align 4
  %4 = load ptr, ptr %h.addr, align 8
  %sub_bucket_half_count = getelementptr inbounds %struct.hdr_histogram, ptr %4, i32 0, i32 5
  %5 = load i32, ptr %sub_bucket_half_count, align 4
  %sub1 = sub nsw i32 %5, 1
  %and = and i32 %3, %sub1
  %6 = load ptr, ptr %h.addr, align 8
  %sub_bucket_half_count2 = getelementptr inbounds %struct.hdr_histogram, ptr %6, i32 0, i32 5
  %7 = load i32, ptr %sub_bucket_half_count2, align 4
  %add = add nsw i32 %and, %7
  store i32 %add, ptr %sub_bucket_index, align 4
  %8 = load i32, ptr %bucket_index, align 4
  %cmp = icmp slt i32 %8, 0
  br i1 %cmp, label %if.then, label %if.end

if.then:                                          ; preds = %entry
  %9 = load ptr, ptr %h.addr, align 8
  %sub_bucket_half_count3 = getelementptr inbounds %struct.hdr_histogram, ptr %9, i32 0, i32 5
  %10 = load i32, ptr %sub_bucket_half_count3, align 4
  %11 = load i32, ptr %sub_bucket_index, align 4
  %sub4 = sub nsw i32 %11, %10
  store i32 %sub4, ptr %sub_bucket_index, align 4
  store i32 0, ptr %bucket_index, align 4
  br label %if.end

if.end:                                           ; preds = %if.then, %entry
  %12 = load i32, ptr %bucket_index, align 4
  %13 = load i32, ptr %sub_bucket_index, align 4
  %14 = load ptr, ptr %h.addr, align 8
  %unit_magnitude = getelementptr inbounds %struct.hdr_histogram, ptr %14, i32 0, i32 2
  %15 = load i32, ptr %unit_magnitude, align 8
  %call = call i64 @value_from_index(i32 noundef %12, i32 noundef %13, i32 noundef %15)
  ret i64 %call
}

; Function Attrs: nounwind uwtable
define internal i64 @counts_get_normalised(ptr noundef %h, i32 noundef %index) #0 {
entry:
  %h.addr = alloca ptr, align 8
  %index.addr = alloca i32, align 4
  store ptr %h, ptr %h.addr, align 8
  store i32 %index, ptr %index.addr, align 4
  %0 = load ptr, ptr %h.addr, align 8
  %1 = load ptr, ptr %h.addr, align 8
  %2 = load i32, ptr %index.addr, align 4
  %call = call i32 @normalize_index(ptr noundef %1, i32 noundef %2)
  %call1 = call i64 @counts_get_direct(ptr noundef %0, i32 noundef %call)
  ret i64 %call1
}

; Function Attrs: nounwind uwtable
define internal zeroext i1 @has_buckets(ptr noundef %iter) #0 {
entry:
  %iter.addr = alloca ptr, align 8
  store ptr %iter, ptr %iter.addr, align 8
  %0 = load ptr, ptr %iter.addr, align 8
  %counts_index = getelementptr inbounds %struct.hdr_iter, ptr %0, i32 0, i32 1
  %1 = load i32, ptr %counts_index, align 8
  %2 = load ptr, ptr %iter.addr, align 8
  %h = getelementptr inbounds %struct.hdr_iter, ptr %2, i32 0, i32 0
  %3 = load ptr, ptr %h, align 8
  %counts_len = getelementptr inbounds %struct.hdr_histogram, ptr %3, i32 0, i32 13
  %4 = load i32, ptr %counts_len, align 8
  %cmp = icmp slt i32 %1, %4
  ret i1 %cmp
}

; Function Attrs: nounwind uwtable
define internal zeroext i1 @move_next(ptr noundef %iter) #0 {
entry:
  %retval = alloca i1, align 1
  %iter.addr = alloca ptr, align 8
  %value = alloca i64, align 8
  %bucket_index = alloca i32, align 4
  %sub_bucket_index = alloca i32, align 4
  %leq = alloca i64, align 8
  %size_of_equivalent_value_range = alloca i64, align 8
  store ptr %iter, ptr %iter.addr, align 8
  %0 = load ptr, ptr %iter.addr, align 8
  %counts_index = getelementptr inbounds %struct.hdr_iter, ptr %0, i32 0, i32 1
  %1 = load i32, ptr %counts_index, align 8
  %inc = add nsw i32 %1, 1
  store i32 %inc, ptr %counts_index, align 8
  %2 = load ptr, ptr %iter.addr, align 8
  %call = call zeroext i1 @has_buckets(ptr noundef %2)
  br i1 %call, label %if.end, label %if.then

if.then:                                          ; preds = %entry
  store i1 false, ptr %retval, align 1
  br label %return

if.end:                                           ; preds = %entry
  %3 = load ptr, ptr %iter.addr, align 8
  %h = getelementptr inbounds %struct.hdr_iter, ptr %3, i32 0, i32 0
  %4 = load ptr, ptr %h, align 8
  %5 = load ptr, ptr %iter.addr, align 8
  %counts_index1 = getelementptr inbounds %struct.hdr_iter, ptr %5, i32 0, i32 1
  %6 = load i32, ptr %counts_index1, align 8
  %call2 = call i64 @counts_get_normalised(ptr noundef %4, i32 noundef %6)
  %7 = load ptr, ptr %iter.addr, align 8
  %count = getelementptr inbounds %struct.hdr_iter, ptr %7, i32 0, i32 3
  store i64 %call2, ptr %count, align 8
  %8 = load ptr, ptr %iter.addr, align 8
  %count3 = getelementptr inbounds %struct.hdr_iter, ptr %8, i32 0, i32 3
  %9 = load i64, ptr %count3, align 8
  %10 = load ptr, ptr %iter.addr, align 8
  %cumulative_count = getelementptr inbounds %struct.hdr_iter, ptr %10, i32 0, i32 4
  %11 = load i64, ptr %cumulative_count, align 8
  %add = add nsw i64 %11, %9
  store i64 %add, ptr %cumulative_count, align 8
  %12 = load ptr, ptr %iter.addr, align 8
  %h4 = getelementptr inbounds %struct.hdr_iter, ptr %12, i32 0, i32 0
  %13 = load ptr, ptr %h4, align 8
  %14 = load ptr, ptr %iter.addr, align 8
  %counts_index5 = getelementptr inbounds %struct.hdr_iter, ptr %14, i32 0, i32 1
  %15 = load i32, ptr %counts_index5, align 8
  %call6 = call i64 @hdr_value_at_index(ptr noundef %13, i32 noundef %15)
  store i64 %call6, ptr %value, align 8
  %16 = load ptr, ptr %iter.addr, align 8
  %h7 = getelementptr inbounds %struct.hdr_iter, ptr %16, i32 0, i32 0
  %17 = load ptr, ptr %h7, align 8
  %18 = load i64, ptr %value, align 8
  %call8 = call i32 @get_bucket_index(ptr noundef %17, i64 noundef %18)
  store i32 %call8, ptr %bucket_index, align 4
  %19 = load i64, ptr %value, align 8
  %20 = load i32, ptr %bucket_index, align 4
  %21 = load ptr, ptr %iter.addr, align 8
  %h9 = getelementptr inbounds %struct.hdr_iter, ptr %21, i32 0, i32 0
  %22 = load ptr, ptr %h9, align 8
  %unit_magnitude = getelementptr inbounds %struct.hdr_histogram, ptr %22, i32 0, i32 2
  %23 = load i32, ptr %unit_magnitude, align 8
  %call10 = call i32 @get_sub_bucket_index(i64 noundef %19, i32 noundef %20, i32 noundef %23)
  store i32 %call10, ptr %sub_bucket_index, align 4
  %24 = load ptr, ptr %iter.addr, align 8
  %h11 = getelementptr inbounds %struct.hdr_iter, ptr %24, i32 0, i32 0
  %25 = load ptr, ptr %h11, align 8
  %26 = load i32, ptr %bucket_index, align 4
  %27 = load i32, ptr %sub_bucket_index, align 4
  %call12 = call i64 @lowest_equivalent_value_given_bucket_indices(ptr noundef %25, i32 noundef %26, i32 noundef %27)
  store i64 %call12, ptr %leq, align 8
  %28 = load ptr, ptr %iter.addr, align 8
  %h13 = getelementptr inbounds %struct.hdr_iter, ptr %28, i32 0, i32 0
  %29 = load ptr, ptr %h13, align 8
  %30 = load i32, ptr %bucket_index, align 4
  %31 = load i32, ptr %sub_bucket_index, align 4
  %call14 = call i64 @size_of_equivalent_value_range_given_bucket_indices(ptr noundef %29, i32 noundef %30, i32 noundef %31)
  store i64 %call14, ptr %size_of_equivalent_value_range, align 8
  %32 = load i64, ptr %leq, align 8
  %33 = load ptr, ptr %iter.addr, align 8
  %lowest_equivalent_value = getelementptr inbounds %struct.hdr_iter, ptr %33, i32 0, i32 7
  store i64 %32, ptr %lowest_equivalent_value, align 8
  %34 = load i64, ptr %value, align 8
  %35 = load ptr, ptr %iter.addr, align 8
  %value15 = getelementptr inbounds %struct.hdr_iter, ptr %35, i32 0, i32 5
  store i64 %34, ptr %value15, align 8
  %36 = load i64, ptr %leq, align 8
  %37 = load i64, ptr %size_of_equivalent_value_range, align 8
  %add16 = add nsw i64 %36, %37
  %sub = sub nsw i64 %add16, 1
  %38 = load ptr, ptr %iter.addr, align 8
  %highest_equivalent_value = getelementptr inbounds %struct.hdr_iter, ptr %38, i32 0, i32 6
  store i64 %sub, ptr %highest_equivalent_value, align 8
  %39 = load i64, ptr %leq, align 8
  %40 = load i64, ptr %size_of_equivalent_value_range, align 8
  %shr = ashr i64 %40, 1
  %add17 = add nsw i64 %39, %shr
  %41 = load ptr, ptr %iter.addr, align 8
  %median_equivalent_value = getelementptr inbounds %struct.hdr_iter, ptr %41, i32 0, i32 8
  store i64 %add17, ptr %median_equivalent_value, align 8
  store i1 true, ptr %retval, align 1
  br label %return

return:                                           ; preds = %if.end, %if.then
  %42 = load i1, ptr %retval, align 1
  ret i1 %42
}