; Function Attrs: mustprogress nofree norecurse nosync nounwind willreturn memory(read, argmem: readwrite, inaccessiblemem: none) uwtable
define internal fastcc noundef zeroext i1 @move_next(ptr nocapture noundef %iter) unnamed_addr #15 {
entry:
  %counts_index = getelementptr inbounds i8, ptr %iter, i64 8
  %0 = load i32, ptr %counts_index, align 8
  %inc = add nsw i32 %0, 1
  store i32 %inc, ptr %counts_index, align 8
  %iter.val = load ptr, ptr %iter, align 8
  %1 = getelementptr i8, ptr %iter.val, i64 80
  %iter.val.val = load i32, ptr %1, align 8
  %cmp.i = icmp slt i32 %inc, %iter.val.val
  br i1 %cmp.i, label %if.end, label %return

if.end:                                           ; preds = %entry
  %normalizing_index_offset.i.i = getelementptr inbounds i8, ptr %iter.val, i64 64
  %2 = load i32, ptr %normalizing_index_offset.i.i, align 8
  %cmp.i.i = icmp eq i32 %2, 0
  br i1 %cmp.i.i, label %counts_get_normalised.exit, label %if.end.i.i

if.end.i.i:                                       ; preds = %if.end
  %sub.i.i = sub nsw i32 %inc, %2
  %cmp2.i.i = icmp slt i32 %sub.i.i, 0
  %cmp5.not.i.i = icmp slt i32 %sub.i.i, %iter.val.val
  %sub8.i.i = sub nsw i32 0, %iter.val.val
  %spec.select.i.i = select i1 %cmp5.not.i.i, i32 0, i32 %sub8.i.i
  %adjustment.0.i.i = select i1 %cmp2.i.i, i32 %iter.val.val, i32 %spec.select.i.i
  %add.i.i = add nsw i32 %adjustment.0.i.i, %sub.i.i
  br label %counts_get_normalised.exit

counts_get_normalised.exit:                       ; preds = %if.end, %if.end.i.i
  %retval.0.i.i = phi i32 [ %add.i.i, %if.end.i.i ], [ %inc, %if.end ]
  %3 = getelementptr i8, ptr %iter.val, i64 96
  %h.val.i = load ptr, ptr %3, align 8
  %idxprom.i.i = sext i32 %retval.0.i.i to i64
  %arrayidx.i.i = getelementptr inbounds i64, ptr %h.val.i, i64 %idxprom.i.i
  %4 = load i64, ptr %arrayidx.i.i, align 8
  %count = getelementptr inbounds i8, ptr %iter, i64 24
  store i64 %4, ptr %count, align 8
  %cumulative_count = getelementptr inbounds i8, ptr %iter, i64 32
  %5 = load i64, ptr %cumulative_count, align 8
  %add = add nsw i64 %5, %4
  store i64 %add, ptr %cumulative_count, align 8
  %sub_bucket_half_count_magnitude.i = getelementptr inbounds i8, ptr %iter.val, i64 24
  %6 = load i32, ptr %sub_bucket_half_count_magnitude.i, align 8
  %shr.i = ashr i32 %inc, %6
  %sub.i = add nsw i32 %shr.i, -1
  %sub_bucket_half_count.i = getelementptr inbounds i8, ptr %iter.val, i64 28
  %7 = load i32, ptr %sub_bucket_half_count.i, align 4
  %sub1.i = add nsw i32 %7, -1
  %and.i = and i32 %sub1.i, %inc
  %cmp.i28 = icmp slt i32 %shr.i, 1
  %spec.select.i = select i1 %cmp.i28, i32 0, i32 %sub.i
  %add.i = select i1 %cmp.i28, i32 0, i32 %7
  %spec.select8.i = add nsw i32 %and.i, %add.i
  %unit_magnitude.i = getelementptr inbounds i8, ptr %iter.val, i64 16
  %8 = load i32, ptr %unit_magnitude.i, align 8
  %conv.i.i = sext i32 %spec.select8.i to i64
  %add.i.i29 = add nsw i32 %spec.select.i, %8
  %sh_prom.i.i = zext nneg i32 %add.i.i29 to i64
  %shl.i.i = shl i64 %conv.i.i, %sh_prom.i.i
  %sub_bucket_mask.i = getelementptr inbounds i8, ptr %iter.val, i64 32
  %9 = load i64, ptr %sub_bucket_mask.i, align 8
  %or.i = or i64 %shl.i.i, %9
  %10 = tail call i64 @llvm.ctlz.i64(i64 %or.i, i1 true), !range !5
  %cast.i.i = trunc i64 %10 to i32
  %11 = add i32 %6, %cast.i.i
  %add.i32 = sub i32 63, %11
  %sh_prom.i = zext nneg i32 %add.i32 to i64
  %shr.i33 = ashr i64 %shl.i.i, %sh_prom.i
  %conv.i = trunc i64 %shr.i33 to i32
  %sext = shl i64 %shr.i33, 32
  %conv.i.i34 = ashr exact i64 %sext, 32
  %shl.i.i37 = shl i64 %conv.i.i34, %sh_prom.i
  %12 = getelementptr i8, ptr %iter.val, i64 40
  %.val27 = load i32, ptr %12, align 8
  %cmp.not.i = icmp sle i32 %.val27, %conv.i
  %add.i38 = zext i1 %cmp.not.i to i32
  %add1.i = add i32 %add.i32, %add.i38
  %sh_prom.i39 = zext nneg i32 %add1.i to i64
  %shl.i = shl nuw i64 1, %sh_prom.i39
  %lowest_equivalent_value = getelementptr inbounds i8, ptr %iter, i64 56
  store i64 %shl.i.i37, ptr %lowest_equivalent_value, align 8
  %value15 = getelementptr inbounds i8, ptr %iter, i64 40
  store i64 %shl.i.i, ptr %value15, align 8
  %add16 = add i64 %shl.i.i37, -1
  %sub = add i64 %add16, %shl.i
  %highest_equivalent_value = getelementptr inbounds i8, ptr %iter, i64 48
  store i64 %sub, ptr %highest_equivalent_value, align 8
  %shr = ashr i64 %shl.i, 1
  %add17 = add nsw i64 %shr, %shl.i.i37
  %median_equivalent_value = getelementptr inbounds i8, ptr %iter, i64 64
  store i64 %add17, ptr %median_equivalent_value, align 8
  br label %return

return:                                           ; preds = %entry, %counts_get_normalised.exit
  ret i1 %cmp.i
}